target datalayout = "e-m:e-p270:32:32-p271:32:32-p272:64:64-i64:64-i128:128-f80:128-n8:16:32:64-S128"
target triple = "x86_64-pc-linux-gnu"

%struct.V360Context = type { ptr, i32, i32, i32, i32, i32, i32, i32, ptr, ptr, ptr, ptr, ptr, [6 x i32], [6 x i32], [6 x i32], [6 x i32], [3 x i32], i32, i32, float, float, i32, i32, float, float, float, float, float, i32, i32, i32, i32, i32, i32, i32, float, float, float, float, float, float, [2 x float], [2 x float], [2 x [4 x float]], [3 x float], i32, i32, i32, i32, [4 x i32], [4 x i32], [4 x i32], [4 x i32], [4 x i32], [4 x i32], [4 x i32], [4 x i32], [4 x i32], [4 x i32], [4 x i32], i32, i32, i32, i32, i32, i32, ptr, [4 x i32], ptr, ptr, ptr, ptr, ptr }

; Function Attrs: alwaysinline nounwind willreturn memory(none) uwtable
define internal i32 @av_clip_c(i32 noundef %0, i32 noundef %1, i32 noundef %2) #3 {
  %4 = alloca i32, align 4
  %5 = alloca i32, align 4
  %6 = alloca i32, align 4
  %7 = alloca i32, align 4
  store i32 %0, ptr %5, align 4, !tbaa !9
  store i32 %1, ptr %6, align 4, !tbaa !9
  store i32 %2, ptr %7, align 4, !tbaa !9
  %8 = load i32, ptr %5, align 4, !tbaa !9
  %9 = load i32, ptr %6, align 4, !tbaa !9
  %10 = icmp slt i32 %8, %9
  br i1 %10, label %11, label %13

11:                                               ; preds = %3
  %12 = load i32, ptr %6, align 4, !tbaa !9
  store i32 %12, ptr %4, align 4
  br label %21

13:                                               ; preds = %3
  %14 = load i32, ptr %5, align 4, !tbaa !9
  %15 = load i32, ptr %7, align 4, !tbaa !9
  %16 = icmp sgt i32 %14, %15
  br i1 %16, label %17, label %19

17:                                               ; preds = %13
  %18 = load i32, ptr %7, align 4, !tbaa !9
  store i32 %18, ptr %4, align 4
  br label %21

19:                                               ; preds = %13
  %20 = load i32, ptr %5, align 4, !tbaa !9
  store i32 %20, ptr %4, align 4
  br label %21

21:                                               ; preds = %19, %17, %11
  %22 = load i32, ptr %4, align 4
  ret i32 %22
}

; Function Attrs: alwaysinline nounwind uwtable
define internal float @scale(float noundef %0, float noundef %1) #12 {
  %3 = alloca float, align 4
  %4 = alloca float, align 4
  store float %0, ptr %3, align 4, !tbaa !99
  store float %1, ptr %4, align 4, !tbaa !99
  %5 = load float, ptr %3, align 4, !tbaa !99
  %6 = call nsz float @llvm.fmuladd.f32(float 5.000000e-01, float %5, float 5.000000e-01)
  %7 = load float, ptr %4, align 4, !tbaa !99
  %8 = fsub nsz float %7, 1.000000e+00
  %9 = fmul nsz float %6, %8
  ret float %9
}

; Function Attrs: nounwind uwtable
define internal i32 @xyz_to_cylindrical(ptr noundef %0, ptr noundef %1, i32 noundef %2, i32 noundef %3, ptr noundef %4, ptr noundef %5, ptr noundef %6, ptr noundef %7) #0 {
  %9 = alloca ptr, align 8
  %10 = alloca ptr, align 8
  %11 = alloca i32, align 4
  %12 = alloca i32, align 4
  %13 = alloca ptr, align 8
  %14 = alloca ptr, align 8
  %15 = alloca ptr, align 8
  %16 = alloca ptr, align 8
  %17 = alloca float, align 4
  %18 = alloca float, align 4
  %19 = alloca float, align 4
  %20 = alloca float, align 4
  %21 = alloca i32, align 4
  %22 = alloca i32, align 4
  %23 = alloca i32, align 4
  %24 = alloca i32, align 4
  %25 = alloca i32, align 4
  %26 = alloca i32, align 4
  store ptr %0, ptr %9, align 8, !tbaa !4
  store ptr %1, ptr %10, align 8, !tbaa !188
  store i32 %2, ptr %11, align 4, !tbaa !9
  store i32 %3, ptr %12, align 4, !tbaa !9
  store ptr %4, ptr %13, align 8, !tbaa !21
  store ptr %5, ptr %14, align 8, !tbaa !21
  store ptr %6, ptr %15, align 8, !tbaa !188
  store ptr %7, ptr %16, align 8, !tbaa !188
  call void @llvm.lifetime.start.p0(i64 4, ptr %17) #13
  %27 = load ptr, ptr %10, align 8, !tbaa !188
  %28 = getelementptr inbounds float, ptr %27, i64 0
  %29 = load float, ptr %28, align 4, !tbaa !99
  %30 = load ptr, ptr %10, align 8, !tbaa !188
  %31 = getelementptr inbounds float, ptr %30, i64 2
  %32 = load float, ptr %31, align 4, !tbaa !99
  %33 = call nsz float @llvm.atan2.f32(float %29, float %32)
  %34 = load ptr, ptr %9, align 8, !tbaa !4
  %35 = getelementptr inbounds nuw %struct.V360Context, ptr %34, i32 0, i32 43
  %36 = getelementptr inbounds [2 x float], ptr %35, i64 0, i64 0
  %37 = load float, ptr %36, align 4, !tbaa !99
  %38 = fdiv nsz float %33, %37
  store float %38, ptr %17, align 4, !tbaa !99
  call void @llvm.lifetime.start.p0(i64 4, ptr %18) #13
  %39 = load ptr, ptr %10, align 8, !tbaa !188
  %40 = getelementptr inbounds float, ptr %39, i64 1
  %41 = load float, ptr %40, align 4, !tbaa !99
  %42 = call nsz float @llvm.asin.f32(float %41)
  store float %42, ptr %18, align 4, !tbaa !99
  call void @llvm.lifetime.start.p0(i64 4, ptr %19) #13
  %43 = load float, ptr %17, align 4, !tbaa !99
  %44 = load i32, ptr %11, align 4, !tbaa !9
  %45 = sitofp i32 %44 to float
  %46 = call nsz float @scale(float noundef %43, float noundef %45)
  store float %46, ptr %19, align 4, !tbaa !99
  call void @llvm.lifetime.start.p0(i64 4, ptr %20) #13
  %47 = load float, ptr %18, align 4, !tbaa !99
  %48 = call nsz float @llvm.tan.f32(float %47)
  %49 = load ptr, ptr %9, align 8, !tbaa !4
  %50 = getelementptr inbounds nuw %struct.V360Context, ptr %49, i32 0, i32 43
  %51 = getelementptr inbounds [2 x float], ptr %50, i64 0, i64 1
  %52 = load float, ptr %51, align 4, !tbaa !99
  %53 = fdiv nsz float %48, %52
  %54 = load i32, ptr %12, align 4, !tbaa !9
  %55 = sitofp i32 %54 to float
  %56 = call nsz float @scale(float noundef %53, float noundef %55)
  store float %56, ptr %20, align 4, !tbaa !99
  call void @llvm.lifetime.start.p0(i64 4, ptr %21) #13
  %57 = load float, ptr %19, align 4, !tbaa !99
  %58 = call nsz float @llvm.floor.f32(float %57)
  %59 = fptosi float %58 to i32
  store i32 %59, ptr %21, align 4, !tbaa !9
  call void @llvm.lifetime.start.p0(i64 4, ptr %22) #13
  %60 = load float, ptr %20, align 4, !tbaa !99
  %61 = call nsz float @llvm.floor.f32(float %60)
  %62 = fptosi float %61 to i32
  store i32 %62, ptr %22, align 4, !tbaa !9
  call void @llvm.lifetime.start.p0(i64 4, ptr %23) #13
  %63 = load i32, ptr %22, align 4, !tbaa !9
  %64 = icmp sge i32 %63, 0
  br i1 %64, label %65, label %96

65:                                               ; preds = %8
  %66 = load i32, ptr %22, align 4, !tbaa !9
  %67 = load i32, ptr %12, align 4, !tbaa !9
  %68 = icmp slt i32 %66, %67
  br i1 %68, label %69, label %96

69:                                               ; preds = %65
  %70 = load i32, ptr %21, align 4, !tbaa !9
  %71 = icmp sge i32 %70, 0
  br i1 %71, label %72, label %96

72:                                               ; preds = %69
  %73 = load i32, ptr %21, align 4, !tbaa !9
  %74 = load i32, ptr %11, align 4, !tbaa !9
  %75 = icmp slt i32 %73, %74
  br i1 %75, label %76, label %96

76:                                               ; preds = %72
  %77 = load float, ptr %18, align 4, !tbaa !99
  %78 = fpext nsz float %77 to double
  %79 = load ptr, ptr %9, align 8, !tbaa !4
  %80 = getelementptr inbounds nuw %struct.V360Context, ptr %79, i32 0, i32 40
  %81 = load float, ptr %80, align 4, !tbaa !110
  %82 = fpext nsz float %81 to double
  %83 = fmul nsz double 0x400921FB54442D18, %82
  %84 = fdiv nsz double %83, 1.800000e+02
  %85 = fcmp nsz ole double %78, %84
  br i1 %85, label %86, label %96

86:                                               ; preds = %76
  %87 = load float, ptr %18, align 4, !tbaa !99
  %88 = fpext nsz float %87 to double
  %89 = load ptr, ptr %9, align 8, !tbaa !4
  %90 = getelementptr inbounds nuw %struct.V360Context, ptr %89, i32 0, i32 40
  %91 = load float, ptr %90, align 4, !tbaa !110
  %92 = fpext nsz float %91 to double
  %93 = fmul nsz double 0xC00921FB54442D18, %92
  %94 = fdiv nsz double %93, 1.800000e+02
  %95 = fcmp nsz oge double %88, %94
  br label %96

96:                                               ; preds = %86, %76, %72, %69, %65, %8
  %97 = phi i1 [ false, %76 ], [ false, %72 ], [ false, %69 ], [ false, %65 ], [ false, %8 ], [ %95, %86 ]
  %98 = zext i1 %97 to i32
  store i32 %98, ptr %23, align 4, !tbaa !9
  %99 = load float, ptr %19, align 4, !tbaa !99
  %100 = load i32, ptr %21, align 4, !tbaa !9
  %101 = sitofp i32 %100 to float
  %102 = fsub nsz float %99, %101
  %103 = load ptr, ptr %15, align 8, !tbaa !188
  store float %102, ptr %103, align 4, !tbaa !99
  %104 = load float, ptr %20, align 4, !tbaa !99
  %105 = load i32, ptr %22, align 4, !tbaa !9
  %106 = sitofp i32 %105 to float
  %107 = fsub nsz float %104, %106
  %108 = load ptr, ptr %16, align 8, !tbaa !188
  store float %107, ptr %108, align 4, !tbaa !99
  call void @llvm.lifetime.start.p0(i64 4, ptr %24) #13
  store i32 0, ptr %24, align 4, !tbaa !9
  br label %109

109:                                              ; preds = %165, %96
  %110 = load i32, ptr %24, align 4, !tbaa !9
  %111 = icmp slt i32 %110, 4
  br i1 %111, label %113, label %112

112:                                              ; preds = %109
  store i32 2, ptr %25, align 4
  call void @llvm.lifetime.end.p0(i64 4, ptr %24) #13
  br label %168

113:                                              ; preds = %109
  call void @llvm.lifetime.start.p0(i64 4, ptr %26) #13
  store i32 0, ptr %26, align 4, !tbaa !9
  br label %114

114:                                              ; preds = %161, %113
  %115 = load i32, ptr %26, align 4, !tbaa !9
  %116 = icmp slt i32 %115, 4
  br i1 %116, label %118, label %117

117:                                              ; preds = %114
  store i32 5, ptr %25, align 4
  call void @llvm.lifetime.end.p0(i64 4, ptr %26) #13
  br label %164

118:                                              ; preds = %114
  %119 = load i32, ptr %23, align 4, !tbaa !9
  %120 = icmp ne i32 %119, 0
  br i1 %120, label %121, label %129

121:                                              ; preds = %118
  %122 = load i32, ptr %21, align 4, !tbaa !9
  %123 = load i32, ptr %26, align 4, !tbaa !9
  %124 = add nsw i32 %122, %123
  %125 = sub nsw i32 %124, 1
  %126 = load i32, ptr %11, align 4, !tbaa !9
  %127 = sub nsw i32 %126, 1
  %128 = call i32 @av_clip_c(i32 noundef %125, i32 noundef 0, i32 noundef %127) #14
  br label %130

129:                                              ; preds = %118
  br label %130

130:                                              ; preds = %129, %121
  %131 = phi i32 [ %128, %121 ], [ 0, %129 ]
  %132 = trunc i32 %131 to i16
  %133 = load ptr, ptr %13, align 8, !tbaa !21
  %134 = load i32, ptr %24, align 4, !tbaa !9
  %135 = sext i32 %134 to i64
  %136 = getelementptr inbounds [4 x i16], ptr %133, i64 %135
  %137 = load i32, ptr %26, align 4, !tbaa !9
  %138 = sext i32 %137 to i64
  %139 = getelementptr inbounds [4 x i16], ptr %136, i64 0, i64 %138
  store i16 %132, ptr %139, align 2, !tbaa !23
  %140 = load i32, ptr %23, align 4, !tbaa !9
  %141 = icmp ne i32 %140, 0
  br i1 %141, label %142, label %150

142:                                              ; preds = %130
  %143 = load i32, ptr %22, align 4, !tbaa !9
  %144 = load i32, ptr %24, align 4, !tbaa !9
  %145 = add nsw i32 %143, %144
  %146 = sub nsw i32 %145, 1
  %147 = load i32, ptr %12, align 4, !tbaa !9
  %148 = sub nsw i32 %147, 1
  %149 = call i32 @av_clip_c(i32 noundef %146, i32 noundef 0, i32 noundef %148) #14
  br label %151

150:                                              ; preds = %130
  br label %151

151:                                              ; preds = %150, %142
  %152 = phi i32 [ %149, %142 ], [ 0, %150 ]
  %153 = trunc i32 %152 to i16
  %154 = load ptr, ptr %14, align 8, !tbaa !21
  %155 = load i32, ptr %24, align 4, !tbaa !9
  %156 = sext i32 %155 to i64
  %157 = getelementptr inbounds [4 x i16], ptr %154, i64 %156
  %158 = load i32, ptr %26, align 4, !tbaa !9
  %159 = sext i32 %158 to i64
  %160 = getelementptr inbounds [4 x i16], ptr %157, i64 0, i64 %159
  store i16 %153, ptr %160, align 2, !tbaa !23
  br label %161

161:                                              ; preds = %151
  %162 = load i32, ptr %26, align 4, !tbaa !9
  %163 = add nsw i32 %162, 1
  store i32 %163, ptr %26, align 4, !tbaa !9
  br label %114, !llvm.loop !226

164:                                              ; preds = %117
  br label %165

165:                                              ; preds = %164
  %166 = load i32, ptr %24, align 4, !tbaa !9
  %167 = add nsw i32 %166, 1
  store i32 %167, ptr %24, align 4, !tbaa !9
  br label %109, !llvm.loop !227

168:                                              ; preds = %112
  %169 = load i32, ptr %23, align 4, !tbaa !9
  store i32 1, ptr %25, align 4
  call void @llvm.lifetime.end.p0(i64 4, ptr %23) #13
  call void @llvm.lifetime.end.p0(i64 4, ptr %22) #13
  call void @llvm.lifetime.end.p0(i64 4, ptr %21) #13
  call void @llvm.lifetime.end.p0(i64 4, ptr %20) #13
  call void @llvm.lifetime.end.p0(i64 4, ptr %19) #13
  call void @llvm.lifetime.end.p0(i64 4, ptr %18) #13
  call void @llvm.lifetime.end.p0(i64 4, ptr %17) #13
  ret i32 %169
}