; Function Attrs: nofree norecurse nosync nounwind memory(argmem: readwrite) uwtable
define internal range(i32 0, 2) i32 @xyz_to_cylindrical(ptr noundef readonly captures(none) %0, ptr noundef readonly captures(none) %1, i32 noundef %2, i32 noundef %3, ptr noundef writeonly captures(none) %4, ptr noundef writeonly captures(none) %5, ptr noundef writeonly captures(none) initializes((0, 4)) %6, ptr noundef writeonly captures(none) initializes((0, 4)) %7) #1 {
  %9 = load float, ptr %1, align 4, !tbaa !49
  %10 = getelementptr inbounds nuw i8, ptr %1, i64 8
  %11 = load float, ptr %10, align 4, !tbaa !49
  %12 = tail call nsz float @llvm.atan2.f32(float %9, float %11)
  %13 = getelementptr inbounds nuw i8, ptr %0, i64 292
  %14 = load float, ptr %13, align 4, !tbaa !49
  %15 = fdiv nsz float %12, %14
  %16 = getelementptr inbounds nuw i8, ptr %1, i64 4
  %17 = load float, ptr %16, align 4, !tbaa !49
  %18 = tail call nsz float @llvm.asin.f32(float %17)
  %19 = sitofp i32 %2 to float
  %20 = tail call nsz float @llvm.fmuladd.f32(float %15, float 5.000000e-01, float 5.000000e-01)
  %21 = fadd nsz float %19, -1.000000e+00
  %22 = fmul nsz float %21, %20
  %23 = tail call nsz float @llvm.tan.f32(float %18)
  %24 = getelementptr inbounds nuw i8, ptr %0, i64 296
  %25 = load float, ptr %24, align 4, !tbaa !49
  %26 = fdiv nsz float %23, %25
  %27 = sitofp i32 %3 to float
  %28 = tail call nsz float @llvm.fmuladd.f32(float %26, float 5.000000e-01, float 5.000000e-01)
  %29 = fadd nsz float %27, -1.000000e+00
  %30 = fmul nsz float %29, %28
  %31 = tail call nsz float @llvm.floor.f32(float %22)
  %32 = fptosi float %31 to i32
  %33 = tail call nsz float @llvm.floor.f32(float %30)
  %34 = fptosi float %33 to i32
  %35 = icmp sgt i32 %34, -1
  br i1 %35, label %36, label %.thread

36:                                               ; preds = %8
  %37 = icmp sgt i32 %3, %34
  %38 = icmp sgt i32 %32, -1
  %39 = icmp sgt i32 %2, %32
  %40 = and i1 %38, %39
  %or.cond50 = select i1 %37, i1 %40, i1 false
  br i1 %or.cond50, label %41, label %.thread

41:                                               ; preds = %36
  %42 = fpext nsz float %18 to double
  %43 = getelementptr inbounds nuw i8, ptr %0, i64 276
  %44 = load float, ptr %43, align 4, !tbaa !101
  %45 = fpext nsz float %44 to double
  %46 = fmul nsz double %45, 0x400921FB54442D18
  %47 = fdiv nsz double %46, 1.800000e+02
  %48 = fcmp nsz ult double %47, %42
  br i1 %48, label %.thread, label %53

.thread:                                          ; preds = %41, %36, %8
  %49 = sitofp i32 %32 to float
  %50 = fsub nsz float %22, %49
  store float %50, ptr %6, align 4, !tbaa !49
  %51 = sitofp i32 %34 to float
  %52 = fsub nsz float %30, %51
  store float %52, ptr %7, align 4, !tbaa !49
  br label %.preheader.preheader

53:                                               ; preds = %41
  %54 = fmul nsz double %45, 0xC00921FB54442D18
  %55 = fdiv nsz double %54, 1.800000e+02
  %56 = fcmp nsz ugt double %55, %42
  %57 = uitofp nneg i32 %32 to float
  %58 = fsub nsz float %22, %57
  store float %58, ptr %6, align 4, !tbaa !49
  %59 = uitofp nneg i32 %34 to float
  %60 = fsub nsz float %30, %59
  store float %60, ptr %7, align 4, !tbaa !49
  br i1 %56, label %.preheader.preheader, label %.preheader.us.preheader

.preheader.preheader:                             ; preds = %.thread, %53
  br label %.preheader

.preheader.us.preheader:                          ; preds = %53
  %61 = zext nneg i32 %32 to i64
  %62 = zext nneg i32 %34 to i64
  br label %.preheader.us

.preheader.us:                                    ; preds = %.preheader.us.preheader, %.split.us.us
  %indvars.iv69 = phi i64 [ 0, %.preheader.us.preheader ], [ %indvars.iv.next70, %.split.us.us ]
  %63 = add nuw nsw i64 %indvars.iv69, %62
  %64 = trunc nsw i64 %63 to i32
  %65 = tail call i32 @llvm.smin.i32(i32 %64, i32 %3)
  %.inv53.us.not = icmp eq i64 %63, 0
  %66 = trunc i32 %65 to i16
  %67 = add i16 %66, -1
  %68 = select i1 %.inv53.us.not, i16 0, i16 %67
  br label %69

69:                                               ; preds = %69, %.preheader.us
  %indvars.iv65 = phi i64 [ %indvars.iv.next66, %69 ], [ 0, %.preheader.us ]
  %70 = add nuw nsw i64 %indvars.iv65, %61
  %71 = trunc nsw i64 %70 to i32
  %72 = tail call i32 @llvm.smin.i32(i32 %71, i32 %2)
  %.inv.us.us.not = icmp eq i64 %70, 0
  %73 = trunc i32 %72 to i16
  %74 = add i16 %73, -1
  %75 = select i1 %.inv.us.us.not, i16 0, i16 %74
  %76 = getelementptr inbounds nuw [4 x i16], ptr %4, i64 %indvars.iv69, i64 %indvars.iv65
  store i16 %75, ptr %76, align 2, !tbaa !15
  %77 = getelementptr inbounds nuw [4 x i16], ptr %5, i64 %indvars.iv69, i64 %indvars.iv65
  store i16 %68, ptr %77, align 2, !tbaa !15
  %indvars.iv.next66 = add nuw nsw i64 %indvars.iv65, 1
  %exitcond68.not = icmp eq i64 %indvars.iv.next66, 4
  br i1 %exitcond68.not, label %.split.us.us, label %69, !llvm.loop !215

.split.us.us:                                     ; preds = %69
  %indvars.iv.next70 = add nuw nsw i64 %indvars.iv69, 1
  %exitcond72.not = icmp eq i64 %indvars.iv.next70, 4
  br i1 %exitcond72.not, label %.split58.us, label %.preheader.us, !llvm.loop !216

.preheader:                                       ; preds = %.preheader.preheader, %.split
  %indvars.iv61 = phi i64 [ %indvars.iv.next62, %.split ], [ 0, %.preheader.preheader ]
  br label %79

.split58.us:                                      ; preds = %.split.us.us, %.split
  %78 = phi i32 [ 0, %.split ], [ 1, %.split.us.us ]
  ret i32 %78

.split:                                           ; preds = %79
  %indvars.iv.next62 = add nuw nsw i64 %indvars.iv61, 1
  %exitcond64.not = icmp eq i64 %indvars.iv.next62, 4
  br i1 %exitcond64.not, label %.split58.us, label %.preheader, !llvm.loop !216

79:                                               ; preds = %.preheader, %79
  %indvars.iv = phi i64 [ 0, %.preheader ], [ %indvars.iv.next, %79 ]
  %80 = getelementptr inbounds nuw [4 x i16], ptr %4, i64 %indvars.iv61, i64 %indvars.iv
  store i16 0, ptr %80, align 2, !tbaa !15
  %81 = getelementptr inbounds nuw [4 x i16], ptr %5, i64 %indvars.iv61, i64 %indvars.iv
  store i16 0, ptr %81, align 2, !tbaa !15
  %indvars.iv.next = add nuw nsw i64 %indvars.iv, 1
  %exitcond.not = icmp eq i64 %indvars.iv.next, 4
  br i1 %exitcond.not, label %.split, label %79, !llvm.loop !215
}